; Function Attrs: nounwind uwtable
define dso_local ptr @readdir_skip_dot_and_dotdot(ptr noundef %0) local_unnamed_addr #0 {
  %2 = tail call ptr @readdir64(ptr noundef %0) #27
  %.not5 = icmp eq ptr %2, null
  br i1 %.not5, label %is_dot_or_dotdot.exit.thread, label %.lr.ph

.lr.ph:                                           ; preds = %1, %.critedge.backedge
  %3 = phi ptr [ %12, %.critedge.backedge ], [ %2, %1 ]
  %4 = getelementptr inbounds nuw i8, ptr %3, i64 19
  %5 = load i8, ptr %4, align 1, !tbaa !4
  %6 = icmp eq i8 %5, 46
  br i1 %6, label %7, label %is_dot_or_dotdot.exit.thread

7:                                                ; preds = %.lr.ph
  %8 = getelementptr inbounds nuw i8, ptr %3, i64 20
  %9 = load i8, ptr %8, align 1, !tbaa !4
  switch i8 %9, label %is_dot_or_dotdot.exit.thread [
    i8 0, label %.critedge.backedge
    i8 46, label %is_dot_or_dotdot.exit
  ]

is_dot_or_dotdot.exit:                            ; preds = %7
  %10 = getelementptr inbounds nuw i8, ptr %3, i64 21
  %11 = load i8, ptr %10, align 1, !tbaa !4
  %.not10 = icmp eq i8 %11, 0
  br i1 %.not10, label %.critedge.backedge, label %is_dot_or_dotdot.exit.thread

.critedge.backedge:                               ; preds = %is_dot_or_dotdot.exit, %7
  %12 = tail call ptr @readdir64(ptr noundef %0) #27
  %.not = icmp eq ptr %12, null
  br i1 %.not, label %is_dot_or_dotdot.exit.thread, label %.lr.ph, !llvm.loop !7

is_dot_or_dotdot.exit.thread:                     ; preds = %.critedge.backedge, %is_dot_or_dotdot.exit, %.lr.ph, %7, %1
  %.lcssa = phi ptr [ null, %1 ], [ %3, %7 ], [ %3, %.lr.ph ], [ %3, %is_dot_or_dotdot.exit ], [ null, %.critedge.backedge ]
  ret ptr %.lcssa
}